target datalayout = "e-m:e-p270:32:32-p271:32:32-p272:64:64-i64:64-i128:128-f80:128-n8:16:32:64-S128"
target triple = "x86_64-pc-linux-gnu"

%struct.rb_data_type_struct = type { ptr, %struct.anon, ptr, ptr, i64 }
%struct.anon = type { ptr, ptr, ptr, ptr, [1 x ptr] }

@ossl_evp_pkey_type = external constant %struct.rb_data_type_struct, align 8
@rb_eRuntimeError = external global i64, align 8
@.str.23 = private unnamed_addr constant [25 x i8] c"PKEY wasn't initialized!\00", align 1
@.str.24 = private unnamed_addr constant [19 x i8] c"THIS IS NOT A DSA!\00", align 1

; Function Attrs: inlinehint nounwind sspstrong uwtable
define internal i32 @DSA_HAS_PRIVATE(ptr noundef %0) #5 {
  %2 = alloca ptr, align 8
  %3 = alloca ptr, align 8
  store ptr %0, ptr %2, align 8, !tbaa !19
  call void @llvm.lifetime.start.p0(i64 8, ptr %3) #11
  %4 = load ptr, ptr %2, align 8, !tbaa !19
  call void @DSA_get0_key(ptr noundef %4, ptr noundef null, ptr noundef %3)
  %5 = load ptr, ptr %3, align 8, !tbaa !25
  %6 = icmp ne ptr %5, null
  %7 = xor i1 %6, true
  %8 = xor i1 %7, true
  %9 = zext i1 %8 to i32
  call void @llvm.lifetime.end.p0(i64 8, ptr %3) #11
  ret i32 %9
}

; Function Attrs: nounwind sspstrong uwtable
define internal i64 @ossl_dsa_to_der(i64 noundef %0) #0 {
  %2 = alloca i64, align 8
  %3 = alloca i64, align 8
  %4 = alloca ptr, align 8
  %5 = alloca ptr, align 8
  %6 = alloca i32, align 4
  store i64 %0, ptr %3, align 8, !tbaa !6
  call void @llvm.lifetime.start.p0(i64 8, ptr %4) #11
  br label %7

7:                                                ; preds = %1
  call void @llvm.lifetime.start.p0(i64 8, ptr %5) #11
  br label %8

8:                                                ; preds = %7
  br label %9

9:                                                ; preds = %8
  %10 = load i64, ptr %3, align 8, !tbaa !6
  %11 = call ptr @rb_check_typeddata(i64 noundef %10, ptr noundef @ossl_evp_pkey_type)
  store ptr %11, ptr %5, align 8, !tbaa !17
  %12 = load ptr, ptr %5, align 8, !tbaa !17
  %13 = icmp ne ptr %12, null
  br i1 %13, label %16, label %14

14:                                               ; preds = %9
  %15 = load i64, ptr @rb_eRuntimeError, align 8, !tbaa !6
  call void (i64, ptr, ...) @rb_raise(i64 noundef %15, ptr noundef @.str.23) #12
  unreachable

16:                                               ; preds = %9
  br label %17

17:                                               ; preds = %16
  br label %18

18:                                               ; preds = %17
  %19 = load ptr, ptr %5, align 8, !tbaa !17
  %20 = call i32 @EVP_PKEY_get_base_id(ptr noundef %19)
  %21 = icmp ne i32 %20, 116
  br i1 %21, label %22, label %24

22:                                               ; preds = %18
  %23 = load i64, ptr @rb_eRuntimeError, align 8, !tbaa !6
  call void (i64, ptr, ...) @ossl_raise(i64 noundef %23, ptr noundef @.str.24) #12
  unreachable

24:                                               ; preds = %18
  br label %25

25:                                               ; preds = %24
  br label %26

26:                                               ; preds = %25
  %27 = load ptr, ptr %5, align 8, !tbaa !17
  %28 = call ptr @EVP_PKEY_get0_DSA(ptr noundef %27)
  store ptr %28, ptr %4, align 8, !tbaa !19
  call void @llvm.lifetime.end.p0(i64 8, ptr %5) #11
  br label %29

29:                                               ; preds = %26
  br label %30

30:                                               ; preds = %29
  %31 = load ptr, ptr %4, align 8, !tbaa !19
  %32 = call i32 @DSA_HAS_PRIVATE(ptr noundef %31)
  %33 = icmp ne i32 %32, 0
  br i1 %33, label %34, label %37

34:                                               ; preds = %30
  %35 = load i64, ptr %3, align 8, !tbaa !6
  %36 = call i64 @ossl_pkey_export_traditional(i32 noundef 0, ptr noundef null, i64 noundef %35, i32 noundef 1)
  store i64 %36, ptr %2, align 8
  store i32 1, ptr %6, align 4
  br label %40

37:                                               ; preds = %30
  %38 = load i64, ptr %3, align 8, !tbaa !6
  %39 = call i64 @ossl_pkey_export_spki(i64 noundef %38, i32 noundef 1)
  store i64 %39, ptr %2, align 8
  store i32 1, ptr %6, align 4
  br label %40

40:                                               ; preds = %37, %34
  call void @llvm.lifetime.end.p0(i64 8, ptr %4) #11
  %41 = load i64, ptr %2, align 8
  ret i64 %41
}